; Function Attrs: mustprogress nounwind uwtable
define void @_ZN6casadi13CodeGenerator11scope_enterEv(ptr noundef nonnull align 8 dereferenceable(3097) %0) local_unnamed_addr #4 align 2 personality ptr @__gxx_personality_v0 {
  %2 = getelementptr inbounds i8, ptr %0, i64 2760
  %3 = getelementptr inbounds i8, ptr %0, i64 2776
  %4 = load ptr, ptr %3, align 8
  invoke void @_ZNSt8_Rb_treeINSt7__cxx1112basic_stringIcSt11char_traitsIcESaIcEEESt4pairIKS5_S6_IS5_S5_EESt10_Select1stIS9_ESt4lessIS5_ESaIS9_EE8_M_eraseEPSt13_Rb_tree_nodeIS9_E(ptr noundef nonnull align 8 dereferenceable(48) %2, ptr noundef %4)
          to label %_ZNSt3mapINSt7__cxx1112basic_stringIcSt11char_traitsIcESaIcEEESt4pairIS5_S5_ESt4lessIS5_ESaIS6_IKS5_S7_EEE5clearEv.exit unwind label %5

5:                                                ; preds = %1
  %6 = landingpad { ptr, i32 }
          catch ptr null
  %7 = extractvalue { ptr, i32 } %6, 0
  tail call void @__clang_call_terminate(ptr %7) #23
  unreachable

_ZNSt3mapINSt7__cxx1112basic_stringIcSt11char_traitsIcESaIcEEESt4pairIS5_S5_ESt4lessIS5_ESaIS6_IKS5_S7_EEE5clearEv.exit: ; preds = %1
  %8 = getelementptr inbounds i8, ptr %0, i64 2768
  store ptr null, ptr %3, align 8
  %9 = getelementptr inbounds i8, ptr %0, i64 2784
  store ptr %8, ptr %9, align 8
  %10 = getelementptr inbounds i8, ptr %0, i64 2792
  store ptr %8, ptr %10, align 8
  %11 = getelementptr inbounds i8, ptr %0, i64 2800
  store i64 0, ptr %11, align 8
  %12 = getelementptr inbounds i8, ptr %0, i64 2808
  %13 = getelementptr inbounds i8, ptr %0, i64 2824
  %14 = load ptr, ptr %13, align 8
  invoke void @_ZNSt8_Rb_treeINSt7__cxx1112basic_stringIcSt11char_traitsIcESaIcEEESt4pairIKS5_S5_ESt10_Select1stIS8_ESt4lessIS5_ESaIS8_EE8_M_eraseEPSt13_Rb_tree_nodeIS8_E(ptr noundef nonnull align 8 dereferenceable(48) %12, ptr noundef %14)
          to label %_ZNSt3mapINSt7__cxx1112basic_stringIcSt11char_traitsIcESaIcEEES5_St4lessIS5_ESaISt4pairIKS5_S5_EEE5clearEv.exit unwind label %15

15:                                               ; preds = %_ZNSt3mapINSt7__cxx1112basic_stringIcSt11char_traitsIcESaIcEEESt4pairIS5_S5_ESt4lessIS5_ESaIS6_IKS5_S7_EEE5clearEv.exit
  %16 = landingpad { ptr, i32 }
          catch ptr null
  %17 = extractvalue { ptr, i32 } %16, 0
  tail call void @__clang_call_terminate(ptr %17) #23
  unreachable

_ZNSt3mapINSt7__cxx1112basic_stringIcSt11char_traitsIcESaIcEEES5_St4lessIS5_ESaISt4pairIKS5_S5_EEE5clearEv.exit: ; preds = %_ZNSt3mapINSt7__cxx1112basic_stringIcSt11char_traitsIcESaIcEEESt4pairIS5_S5_ESt4lessIS5_ESaIS6_IKS5_S7_EEE5clearEv.exit
  %18 = getelementptr inbounds i8, ptr %0, i64 2816
  store ptr null, ptr %13, align 8
  %19 = getelementptr inbounds i8, ptr %0, i64 2832
  store ptr %18, ptr %19, align 8
  %20 = getelementptr inbounds i8, ptr %0, i64 2840
  store ptr %18, ptr %20, align 8
  %21 = getelementptr inbounds i8, ptr %0, i64 2848
  store i64 0, ptr %21, align 8
  ret void
}